target datalayout = "e-m:e-p270:32:32-p271:32:32-p272:64:64-i64:64-i128:128-f80:128-n8:16:32:64-S128"
target triple = "x86_64-pc-linux-gnu"

%struct.SDL_Environment = type { ptr, ptr }

@.str = private unnamed_addr constant [26 x i8] c"Parameter '%s' is invalid\00", align 1
@.str.1 = private unnamed_addr constant [4 x i8] c"env\00", align 1
@.str.2 = private unnamed_addr constant [5 x i8] c"name\00", align 1

; Function Attrs: nounwind uwtable
define hidden zeroext i1 @SDL_UnsetEnvironmentVariable_REAL(ptr noundef %0, ptr noundef %1) #0 {
  %3 = alloca i1, align 1
  %4 = alloca ptr, align 8
  %5 = alloca ptr, align 8
  %6 = alloca i8, align 1
  %7 = alloca i32, align 4
  %8 = alloca ptr, align 8
  store ptr %0, ptr %4, align 8
  store ptr %1, ptr %5, align 8
  call void @llvm.lifetime.start.p0(i64 1, ptr %6) #7
  store i8 0, ptr %6, align 1
  %9 = load ptr, ptr %4, align 8
  %10 = icmp ne ptr %9, null
  br i1 %10, label %13, label %11

11:                                               ; preds = %2
  %12 = call zeroext i1 (ptr, ...) @SDL_SetError_REAL(ptr noundef @.str, ptr noundef @.str.1)
  store i1 %12, ptr %3, align 1
  store i32 1, ptr %7, align 4
  br label %51

13:                                               ; preds = %2
  %14 = load ptr, ptr %5, align 8
  %15 = icmp ne ptr %14, null
  br i1 %15, label %16, label %25

16:                                               ; preds = %13
  %17 = load ptr, ptr %5, align 8
  %18 = load i8, ptr %17, align 1
  %19 = sext i8 %18 to i32
  %20 = icmp eq i32 %19, 0
  br i1 %20, label %25, label %21

21:                                               ; preds = %16
  %22 = load ptr, ptr %5, align 8
  %23 = call ptr @SDL_strchr_REAL(ptr noundef %22, i32 noundef 61)
  %24 = icmp ne ptr %23, null
  br i1 %24, label %25, label %27

25:                                               ; preds = %21, %16, %13
  %26 = call zeroext i1 (ptr, ...) @SDL_SetError_REAL(ptr noundef @.str, ptr noundef @.str.2)
  store i1 %26, ptr %3, align 1
  store i32 1, ptr %7, align 4
  br label %51

27:                                               ; preds = %21
  br label %28

28:                                               ; preds = %27
  %29 = load ptr, ptr %4, align 8
  %30 = getelementptr inbounds nuw %struct.SDL_Environment, ptr %29, i32 0, i32 0
  %31 = load ptr, ptr %30, align 8
  call void @SDL_LockMutex_REAL(ptr noundef %31)
  call void @llvm.lifetime.start.p0(i64 8, ptr %8) #7
  %32 = load ptr, ptr %4, align 8
  %33 = getelementptr inbounds nuw %struct.SDL_Environment, ptr %32, i32 0, i32 1
  %34 = load ptr, ptr %33, align 8
  %35 = load ptr, ptr %5, align 8
  %36 = call zeroext i1 @SDL_FindInHashTable(ptr noundef %34, ptr noundef %35, ptr noundef %8)
  br i1 %36, label %37, label %44

37:                                               ; preds = %28
  %38 = load ptr, ptr %4, align 8
  %39 = getelementptr inbounds nuw %struct.SDL_Environment, ptr %38, i32 0, i32 1
  %40 = load ptr, ptr %39, align 8
  %41 = load ptr, ptr %5, align 8
  %42 = call zeroext i1 @SDL_RemoveFromHashTable(ptr noundef %40, ptr noundef %41)
  %43 = zext i1 %42 to i8
  store i8 %43, ptr %6, align 1
  br label %45

44:                                               ; preds = %28
  store i8 1, ptr %6, align 1
  br label %45

45:                                               ; preds = %44, %37
  call void @llvm.lifetime.end.p0(i64 8, ptr %8) #7
  %46 = load ptr, ptr %4, align 8
  %47 = getelementptr inbounds nuw %struct.SDL_Environment, ptr %46, i32 0, i32 0
  %48 = load ptr, ptr %47, align 8
  call void @SDL_UnlockMutex_REAL(ptr noundef %48)
  %49 = load i8, ptr %6, align 1, !range !3, !noundef !4
  %50 = trunc i8 %49 to i1
  store i1 %50, ptr %3, align 1
  store i32 1, ptr %7, align 4
  br label %51

51:                                               ; preds = %45, %25, %11
  call void @llvm.lifetime.end.p0(i64 1, ptr %6) #7
  %52 = load i1, ptr %3, align 1
  ret i1 %52
}