; Function Attrs: nounwind uwtable
define hidden zeroext i1 @SDL_UnsetEnvironmentVariable_REAL(ptr noundef readonly captures(address_is_null) %0, ptr noundef %1) local_unnamed_addr #0 {
  %3 = alloca ptr, align 8
  %.not = icmp eq ptr %0, null
  br i1 %.not, label %4, label %6

4:                                                ; preds = %2
  %5 = tail call zeroext i1 (ptr, ...) @SDL_SetError_REAL(ptr noundef nonnull @.str, ptr noundef nonnull @.str.1) #11
  br label %24

6:                                                ; preds = %2
  %.not14 = icmp eq ptr %1, null
  br i1 %.not14, label %12, label %7

7:                                                ; preds = %6
  %8 = load i8, ptr %1, align 1
  %9 = icmp eq i8 %8, 0
  br i1 %9, label %12, label %10

10:                                               ; preds = %7
  %11 = tail call ptr @SDL_strchr_REAL(ptr noundef nonnull %1, i32 noundef 61) #11
  %.not15 = icmp eq ptr %11, null
  br i1 %.not15, label %14, label %12

12:                                               ; preds = %10, %7, %6
  %13 = tail call zeroext i1 (ptr, ...) @SDL_SetError_REAL(ptr noundef nonnull @.str, ptr noundef nonnull @.str.2) #11
  br label %24

14:                                               ; preds = %10
  %15 = load ptr, ptr %0, align 8
  tail call void @SDL_LockMutex_REAL(ptr noundef %15) #11
  call void @llvm.lifetime.start.p0(i64 8, ptr nonnull %3) #11
  %16 = getelementptr inbounds nuw i8, ptr %0, i64 8
  %17 = load ptr, ptr %16, align 8
  %18 = call zeroext i1 @SDL_FindInHashTable(ptr noundef %17, ptr noundef nonnull %1, ptr noundef nonnull %3) #11
  br i1 %18, label %19, label %22

19:                                               ; preds = %14
  %20 = load ptr, ptr %16, align 8
  %21 = call zeroext i1 @SDL_RemoveFromHashTable(ptr noundef %20, ptr noundef nonnull %1) #11
  br label %22

22:                                               ; preds = %14, %19
  %.0 = phi i1 [ %21, %19 ], [ true, %14 ]
  call void @llvm.lifetime.end.p0(i64 8, ptr nonnull %3) #11
  %23 = load ptr, ptr %0, align 8
  call void @SDL_UnlockMutex_REAL(ptr noundef %23) #11
  br label %24

24:                                               ; preds = %22, %12, %4
  %.011 = phi i1 [ %13, %12 ], [ %.0, %22 ], [ %5, %4 ]
  ret i1 %.011
}